; Function Attrs: mustprogress uwtable
define void @_ZN4YAMLorERKNS_5RegExES2_(ptr dead_on_unwind noalias writable sret(%"class.YAML::RegEx") align 8 %0, ptr noundef nonnull align 8 dereferenceable(32) %1, ptr noundef nonnull align 8 dereferenceable(32) %2) local_unnamed_addr #2 personality ptr @__gxx_personality_v0 {
  tail call void @_ZN4YAML5RegExC1ENS_8REGEX_OPE(ptr noundef nonnull align 8 dereferenceable(32) %0, i32 noundef 3)
  %4 = getelementptr inbounds nuw i8, ptr %0, i64 8
  %5 = getelementptr inbounds nuw i8, ptr %0, i64 16
  %6 = load ptr, ptr %5, align 8, !tbaa !23
  %7 = getelementptr inbounds nuw i8, ptr %0, i64 24
  %8 = load ptr, ptr %7, align 8, !tbaa !24
  %.not.i = icmp eq ptr %6, %8
  br i1 %.not.i, label %14, label %9

9:                                                ; preds = %3
  tail call void @llvm.memcpy.p0.p0.i64(ptr noundef nonnull align 8 dereferenceable(32) %6, ptr noundef nonnull align 8 dereferenceable(32) %1, i64 6, i1 false)
  %10 = getelementptr inbounds nuw i8, ptr %6, i64 8
  %11 = getelementptr inbounds nuw i8, ptr %1, i64 8
  invoke void @_ZNSt6vectorIN4YAML5RegExESaIS1_EEC2ERKS3_(ptr noundef nonnull align 8 dereferenceable(24) %10, ptr noundef nonnull align 8 dereferenceable(24) %11)
          to label %.noexc unwind label %23

.noexc:                                           ; preds = %9
  %12 = load ptr, ptr %5, align 8, !tbaa !23
  %13 = getelementptr inbounds nuw i8, ptr %12, i64 32
  store ptr %13, ptr %5, align 8, !tbaa !23
  br label %_ZNSt6vectorIN4YAML5RegExESaIS1_EE9push_backERKS1_.exit

14:                                               ; preds = %3
  invoke void @_ZNSt6vectorIN4YAML5RegExESaIS1_EE17_M_realloc_insertIJRKS1_EEEvN9__gnu_cxx17__normal_iteratorIPS1_S3_EEDpOT_(ptr noundef nonnull align 8 dereferenceable(24) %4, ptr %6, ptr noundef nonnull align 8 dereferenceable(32) %1)
          to label %._ZNSt6vectorIN4YAML5RegExESaIS1_EE9push_backERKS1_.exit_crit_edge unwind label %23

._ZNSt6vectorIN4YAML5RegExESaIS1_EE9push_backERKS1_.exit_crit_edge: ; preds = %14
  %.pre = load ptr, ptr %5, align 8, !tbaa !23
  br label %_ZNSt6vectorIN4YAML5RegExESaIS1_EE9push_backERKS1_.exit

_ZNSt6vectorIN4YAML5RegExESaIS1_EE9push_backERKS1_.exit: ; preds = %._ZNSt6vectorIN4YAML5RegExESaIS1_EE9push_backERKS1_.exit_crit_edge, %.noexc
  %15 = phi ptr [ %.pre, %._ZNSt6vectorIN4YAML5RegExESaIS1_EE9push_backERKS1_.exit_crit_edge ], [ %13, %.noexc ]
  %16 = load ptr, ptr %7, align 8, !tbaa !24
  %.not.i5 = icmp eq ptr %15, %16
  br i1 %.not.i5, label %22, label %17

17:                                               ; preds = %_ZNSt6vectorIN4YAML5RegExESaIS1_EE9push_backERKS1_.exit
  tail call void @llvm.memcpy.p0.p0.i64(ptr noundef nonnull align 8 dereferenceable(32) %15, ptr noundef nonnull align 8 dereferenceable(32) %2, i64 6, i1 false)
  %18 = getelementptr inbounds nuw i8, ptr %15, i64 8
  %19 = getelementptr inbounds nuw i8, ptr %2, i64 8
  invoke void @_ZNSt6vectorIN4YAML5RegExESaIS1_EEC2ERKS3_(ptr noundef nonnull align 8 dereferenceable(24) %18, ptr noundef nonnull align 8 dereferenceable(24) %19)
          to label %.noexc6 unwind label %23

.noexc6:                                          ; preds = %17
  %20 = load ptr, ptr %5, align 8, !tbaa !23
  %21 = getelementptr inbounds nuw i8, ptr %20, i64 32
  store ptr %21, ptr %5, align 8, !tbaa !23
  br label %_ZNSt6vectorIN4YAML5RegExESaIS1_EE9push_backERKS1_.exit8

22:                                               ; preds = %_ZNSt6vectorIN4YAML5RegExESaIS1_EE9push_backERKS1_.exit
  invoke void @_ZNSt6vectorIN4YAML5RegExESaIS1_EE17_M_realloc_insertIJRKS1_EEEvN9__gnu_cxx17__normal_iteratorIPS1_S3_EEDpOT_(ptr noundef nonnull align 8 dereferenceable(24) %4, ptr %15, ptr noundef nonnull align 8 dereferenceable(32) %2)
          to label %_ZNSt6vectorIN4YAML5RegExESaIS1_EE9push_backERKS1_.exit8 unwind label %23

23:                                               ; preds = %22, %17, %14, %9
  %24 = landingpad { ptr, i32 }
          cleanup
  tail call void @_ZNSt6vectorIN4YAML5RegExESaIS1_EED2Ev(ptr noundef nonnull align 8 dereferenceable(24) %4) #13
  resume { ptr, i32 } %24

_ZNSt6vectorIN4YAML5RegExESaIS1_EE9push_backERKS1_.exit8: ; preds = %.noexc6, %22
  ret void
}